target datalayout = "e-m:e-p270:32:32-p271:32:32-p272:64:64-i64:64-i128:128-f80:128-n8:16:32:64-S128"
target triple = "x86_64-pc-linux-gnu"

%struct.stat = type { i64, i64, i64, i32, i32, i32, i32, i64, i64, i64, i64, %struct.timespec, %struct.timespec, %struct.timespec, [3 x i64] }
%struct.timespec = type { i64, i64 }
%struct.ca_db_st = type { %struct.db_attr_st, ptr, ptr, %struct.stat }
%struct.db_attr_st = type { i32 }
%struct.txt_db_st = type { i32, ptr, ptr, ptr, i64, i64, i64, ptr }

@bio_err = external global ptr, align 8
@.str.131 = private unnamed_addr constant [50 x i8] c"Error creating serial number index:(%ld,%ld,%ld)\0A\00", align 1
@.str.132 = private unnamed_addr constant [41 x i8] c"Error creating name index:(%ld,%ld,%ld)\0A\00", align 1

; Function Attrs: nounwind uwtable
define dso_local i32 @index_index(ptr noundef %0) #0 {
  %2 = alloca i32, align 4
  %3 = alloca ptr, align 8
  store ptr %0, ptr %3, align 8, !tbaa !121
  %4 = load ptr, ptr %3, align 8, !tbaa !121
  %5 = getelementptr inbounds nuw %struct.ca_db_st, ptr %4, i32 0, i32 1
  %6 = load ptr, ptr %5, align 8, !tbaa !125
  %7 = call i32 @TXT_DB_create_index(ptr noundef %6, i32 noundef 3, ptr noundef null, ptr noundef @index_serial_LHASH_HASH, ptr noundef @index_serial_LHASH_COMP)
  %8 = icmp ne i32 %7, 0
  br i1 %8, label %27, label %9

9:                                                ; preds = %1
  %10 = load ptr, ptr @bio_err, align 8, !tbaa !35
  %11 = load ptr, ptr %3, align 8, !tbaa !121
  %12 = getelementptr inbounds nuw %struct.ca_db_st, ptr %11, i32 0, i32 1
  %13 = load ptr, ptr %12, align 8, !tbaa !125
  %14 = getelementptr inbounds nuw %struct.txt_db_st, ptr %13, i32 0, i32 4
  %15 = load i64, ptr %14, align 8, !tbaa !134
  %16 = load ptr, ptr %3, align 8, !tbaa !121
  %17 = getelementptr inbounds nuw %struct.ca_db_st, ptr %16, i32 0, i32 1
  %18 = load ptr, ptr %17, align 8, !tbaa !125
  %19 = getelementptr inbounds nuw %struct.txt_db_st, ptr %18, i32 0, i32 5
  %20 = load i64, ptr %19, align 8, !tbaa !138
  %21 = load ptr, ptr %3, align 8, !tbaa !121
  %22 = getelementptr inbounds nuw %struct.ca_db_st, ptr %21, i32 0, i32 1
  %23 = load ptr, ptr %22, align 8, !tbaa !125
  %24 = getelementptr inbounds nuw %struct.txt_db_st, ptr %23, i32 0, i32 6
  %25 = load i64, ptr %24, align 8, !tbaa !139
  %26 = call i32 (ptr, ptr, ...) @BIO_printf(ptr noundef %10, ptr noundef @.str.131, i64 noundef %15, i64 noundef %20, i64 noundef %25)
  br label %58

27:                                               ; preds = %1
  %28 = load ptr, ptr %3, align 8, !tbaa !121
  %29 = getelementptr inbounds nuw %struct.ca_db_st, ptr %28, i32 0, i32 0
  %30 = getelementptr inbounds nuw %struct.db_attr_st, ptr %29, i32 0, i32 0
  %31 = load i32, ptr %30, align 8, !tbaa !131
  %32 = icmp ne i32 %31, 0
  br i1 %32, label %33, label %57

33:                                               ; preds = %27
  %34 = load ptr, ptr %3, align 8, !tbaa !121
  %35 = getelementptr inbounds nuw %struct.ca_db_st, ptr %34, i32 0, i32 1
  %36 = load ptr, ptr %35, align 8, !tbaa !125
  %37 = call i32 @TXT_DB_create_index(ptr noundef %36, i32 noundef 5, ptr noundef @index_name_qual, ptr noundef @index_name_LHASH_HASH, ptr noundef @index_name_LHASH_COMP)
  %38 = icmp ne i32 %37, 0
  br i1 %38, label %57, label %39

39:                                               ; preds = %33
  %40 = load ptr, ptr @bio_err, align 8, !tbaa !35
  %41 = load ptr, ptr %3, align 8, !tbaa !121
  %42 = getelementptr inbounds nuw %struct.ca_db_st, ptr %41, i32 0, i32 1
  %43 = load ptr, ptr %42, align 8, !tbaa !125
  %44 = getelementptr inbounds nuw %struct.txt_db_st, ptr %43, i32 0, i32 4
  %45 = load i64, ptr %44, align 8, !tbaa !134
  %46 = load ptr, ptr %3, align 8, !tbaa !121
  %47 = getelementptr inbounds nuw %struct.ca_db_st, ptr %46, i32 0, i32 1
  %48 = load ptr, ptr %47, align 8, !tbaa !125
  %49 = getelementptr inbounds nuw %struct.txt_db_st, ptr %48, i32 0, i32 5
  %50 = load i64, ptr %49, align 8, !tbaa !138
  %51 = load ptr, ptr %3, align 8, !tbaa !121
  %52 = getelementptr inbounds nuw %struct.ca_db_st, ptr %51, i32 0, i32 1
  %53 = load ptr, ptr %52, align 8, !tbaa !125
  %54 = getelementptr inbounds nuw %struct.txt_db_st, ptr %53, i32 0, i32 6
  %55 = load i64, ptr %54, align 8, !tbaa !139
  %56 = call i32 (ptr, ptr, ...) @BIO_printf(ptr noundef %40, ptr noundef @.str.132, i64 noundef %45, i64 noundef %50, i64 noundef %55)
  br label %58

57:                                               ; preds = %33, %27
  store i32 1, ptr %2, align 4
  br label %60

58:                                               ; preds = %39, %9
  %59 = load ptr, ptr @bio_err, align 8, !tbaa !35
  call void @ERR_print_errors(ptr noundef %59)
  store i32 0, ptr %2, align 4
  br label %60

60:                                               ; preds = %58, %57
  %61 = load i32, ptr %2, align 4
  ret i32 %61
}