; Function Attrs: nounwind uwtable
define dso_local range(i32 0, 2) i32 @index_index(ptr noundef readonly captures(none) %0) local_unnamed_addr #0 {
  %2 = getelementptr inbounds nuw i8, ptr %0, i64 8
  %3 = load ptr, ptr %2, align 8, !tbaa !69
  %4 = tail call i32 @TXT_DB_create_index(ptr noundef %3, i32 noundef 3, ptr noundef null, ptr noundef nonnull @index_serial_LHASH_HASH, ptr noundef nonnull @index_serial_LHASH_COMP) #27
  %.not = icmp eq i32 %4, 0
  br i1 %.not, label %10, label %5

5:                                                ; preds = %1
  %6 = load i32, ptr %0, align 8, !tbaa !75
  %.not9 = icmp eq i32 %6, 0
  br i1 %.not9, label %21, label %7

7:                                                ; preds = %5
  %8 = load ptr, ptr %2, align 8, !tbaa !69
  %9 = tail call i32 @TXT_DB_create_index(ptr noundef %8, i32 noundef 5, ptr noundef nonnull @index_name_qual, ptr noundef nonnull @index_name_LHASH_HASH, ptr noundef nonnull @index_name_LHASH_COMP) #27
  %.not10 = icmp eq i32 %9, 0
  br i1 %.not10, label %10, label %21

10:                                               ; preds = %7, %1
  %.str.132.sink = phi ptr [ @.str.131, %1 ], [ @.str.132, %7 ]
  %11 = load ptr, ptr @bio_err, align 8, !tbaa !26
  %12 = load ptr, ptr %2, align 8, !tbaa !69
  %13 = getelementptr inbounds nuw i8, ptr %12, i64 32
  %14 = load i64, ptr %13, align 8, !tbaa !78
  %15 = getelementptr inbounds nuw i8, ptr %12, i64 40
  %16 = load i64, ptr %15, align 8, !tbaa !82
  %17 = getelementptr inbounds nuw i8, ptr %12, i64 48
  %18 = load i64, ptr %17, align 8, !tbaa !83
  %19 = tail call i32 (ptr, ptr, ...) @BIO_printf(ptr noundef %11, ptr noundef nonnull %.str.132.sink, i64 noundef %14, i64 noundef %16, i64 noundef %18) #27
  %20 = load ptr, ptr @bio_err, align 8, !tbaa !26
  tail call void @ERR_print_errors(ptr noundef %20) #27
  br label %21

21:                                               ; preds = %5, %7, %10
  %.0 = phi i32 [ 0, %10 ], [ 1, %7 ], [ 1, %5 ]
  ret i32 %.0
}